target datalayout = "e-m:e-p270:32:32-p271:32:32-p272:64:64-i64:64-i128:128-f80:128-n8:16:32:64-S128"
target triple = "x86_64-pc-linux-gnu"

%struct.AVTEA = type { [16 x i32], i32 }

; Function Attrs: alwaysinline nounwind willreturn memory(none) uwtable
define internal i32 @av_bswap32(i32 noundef %0) #3 {
  %2 = alloca i32, align 4
  store i32 %0, ptr %2, align 4, !tbaa !11
  %3 = load i32, ptr %2, align 4, !tbaa !11
  %4 = shl i32 %3, 8
  %5 = and i32 %4, 65280
  %6 = load i32, ptr %2, align 4, !tbaa !11
  %7 = lshr i32 %6, 8
  %8 = and i32 %7, 255
  %9 = or i32 %5, %8
  %10 = shl i32 %9, 16
  %11 = load i32, ptr %2, align 4, !tbaa !11
  %12 = lshr i32 %11, 16
  %13 = shl i32 %12, 8
  %14 = and i32 %13, 65280
  %15 = load i32, ptr %2, align 4, !tbaa !11
  %16 = lshr i32 %15, 16
  %17 = lshr i32 %16, 8
  %18 = and i32 %17, 255
  %19 = or i32 %14, %18
  %20 = or i32 %10, %19
  ret i32 %20
}

; Function Attrs: nounwind uwtable
define void @av_tea_init(ptr noundef %0, ptr noundef %1, i32 noundef %2) #0 {
  %4 = alloca ptr, align 8
  %5 = alloca ptr, align 8
  %6 = alloca i32, align 4
  %7 = alloca i32, align 4
  store ptr %0, ptr %4, align 8, !tbaa !4
  store ptr %1, ptr %5, align 8, !tbaa !9
  store i32 %2, ptr %6, align 4, !tbaa !11
  call void @llvm.lifetime.start.p0(i64 4, ptr %7) #5
  store i32 0, ptr %7, align 4, !tbaa !11
  br label %8

8:                                                ; preds = %24, %3
  %9 = load i32, ptr %7, align 4, !tbaa !11
  %10 = icmp slt i32 %9, 4
  br i1 %10, label %11, label %27

11:                                               ; preds = %8
  %12 = load ptr, ptr %5, align 8, !tbaa !9
  %13 = load i32, ptr %7, align 4, !tbaa !11
  %14 = shl i32 %13, 2
  %15 = sext i32 %14 to i64
  %16 = getelementptr inbounds i8, ptr %12, i64 %15
  %17 = load i32, ptr %16, align 1, !tbaa !13
  %18 = call i32 @av_bswap32(i32 noundef %17) #6
  %19 = load ptr, ptr %4, align 8, !tbaa !4
  %20 = getelementptr inbounds nuw %struct.AVTEA, ptr %19, i32 0, i32 0
  %21 = load i32, ptr %7, align 4, !tbaa !11
  %22 = sext i32 %21 to i64
  %23 = getelementptr inbounds [16 x i32], ptr %20, i64 0, i64 %22
  store i32 %18, ptr %23, align 4, !tbaa !11
  br label %24

24:                                               ; preds = %11
  %25 = load i32, ptr %7, align 4, !tbaa !11
  %26 = add nsw i32 %25, 1
  store i32 %26, ptr %7, align 4, !tbaa !11
  br label %8, !llvm.loop !14

27:                                               ; preds = %8
  %28 = load i32, ptr %6, align 4, !tbaa !11
  %29 = load ptr, ptr %4, align 8, !tbaa !4
  %30 = getelementptr inbounds nuw %struct.AVTEA, ptr %29, i32 0, i32 1
  store i32 %28, ptr %30, align 4, !tbaa !16
  call void @llvm.lifetime.end.p0(i64 4, ptr %7) #5
  ret void
}