; Function Attrs: nofree norecurse nosync nounwind memory(argmem: readwrite) uwtable
define void @av_tea_init(ptr noundef writeonly captures(none) %0, ptr noundef readonly captures(none) %1, i32 noundef %2) local_unnamed_addr #2 {
  br label %4

4:                                                ; preds = %3, %4
  %indvars.iv = phi i64 [ 0, %3 ], [ %indvars.iv.next, %4 ]
  %5 = shl nuw nsw i64 %indvars.iv, 2
  %6 = getelementptr inbounds nuw i8, ptr %1, i64 %5
  %7 = load i32, ptr %6, align 1, !tbaa !4
  %8 = tail call i32 @llvm.bswap.i32(i32 %7)
  %9 = getelementptr inbounds nuw [16 x i32], ptr %0, i64 0, i64 %indvars.iv
  store i32 %8, ptr %9, align 4, !tbaa !7
  %indvars.iv.next = add nuw nsw i64 %indvars.iv, 1
  %exitcond.not = icmp eq i64 %indvars.iv.next, 4
  br i1 %exitcond.not, label %10, label %4, !llvm.loop !9

10:                                               ; preds = %4
  %11 = getelementptr inbounds nuw i8, ptr %0, i64 64
  store i32 %2, ptr %11, align 4, !tbaa !11
  ret void
}